; Function Attrs: mustprogress nofree norecurse nosync nounwind willreturn memory(argmem: read) uwtable
define dso_local noundef zeroext i1 @_ZN4llvm16TypedPointerType18isValidElementTypeEPNS_4TypeE(ptr nocapture noundef readonly %0) local_unnamed_addr #2 align 2 {
  %2 = getelementptr inbounds nuw i8, ptr %0, i64 8
  %3 = load i32, ptr %2, align 8
  %trunc = trunc i32 %3 to i8
  %switch.tableidx = add i8 %trunc, -7
  %4 = icmp ult i8 %switch.tableidx, 5
  br i1 %4, label %switch.hole_check, label %5

5:                                                ; preds = %switch.hole_check, %1
  %6 = and i32 %3, 255
  %7 = icmp ne i32 %6, 10
  br label %switch.lookup

switch.hole_check:                                ; preds = %1
  %switch.shifted = lshr i8 23, %switch.tableidx
  %switch.lobit = trunc i8 %switch.shifted to i1
  br i1 %switch.lobit, label %switch.lookup, label %5

switch.lookup:                                    ; preds = %switch.hole_check, %5
  %8 = phi i1 [ %7, %5 ], [ false, %switch.hole_check ]
  ret i1 %8
}